target datalayout = "e-m:e-p270:32:32-p271:32:32-p272:64:64-i64:64-i128:128-f80:128-n8:16:32:64-S128"
target triple = "x86_64-pc-linux-gnu"

@_ZN14ScopedFilePathC1EOS_ = dso_local unnamed_addr alias void (ptr, ptr), ptr @_ZN14ScopedFilePathC2EOS_
@_ZN14ScopedFilePathD1Ev = dso_local unnamed_addr alias void (ptr), ptr @_ZN14ScopedFilePathD2Ev

; Function Attrs: mustprogress nounwind uwtable
define dso_local noundef nonnull align 8 dereferenceable(33) ptr @_ZN14ScopedFilePathaSEOS_(ptr noundef nonnull align 8 dereferenceable(33) %0, ptr noundef nonnull align 8 dereferenceable(33) %1) #5 align 2 {
  %3 = alloca ptr, align 8
  %4 = alloca ptr, align 8
  store ptr %0, ptr %3, align 8
  store ptr %1, ptr %4, align 8
  %5 = load ptr, ptr %3, align 8
  %6 = load ptr, ptr %4, align 8
  %7 = icmp ne ptr %5, %6
  br i1 %7, label %8, label %10

8:                                                ; preds = %2
  call void @_ZN14ScopedFilePathD1Ev(ptr noundef nonnull align 8 dereferenceable(33) %5) #3
  %9 = load ptr, ptr %4, align 8
  call void @_ZN14ScopedFilePathC1EOS_(ptr noundef nonnull align 8 dereferenceable(33) %5, ptr noundef nonnull align 8 dereferenceable(33) %9) #3
  br label %10

10:                                               ; preds = %8, %2
  ret ptr %5
}