; Function Attrs: mustprogress nounwind uwtable
define dso_local noundef nonnull align 8 dereferenceable(33) ptr @_ZN14ScopedFilePathaSEOS_(ptr noundef nonnull returned align 8 dereferenceable(33) %0, ptr noundef nonnull align 8 dereferenceable(33) %1) local_unnamed_addr #4 align 2 {
  %.not = icmp eq ptr %0, %1
  br i1 %.not, label %13, label %3

3:                                                ; preds = %2
  %4 = getelementptr inbounds i8, ptr %0, i64 32
  %5 = load i8, ptr %4, align 8
  %6 = and i8 %5, 1
  %.not.i = icmp eq i8 %6, 0
  br i1 %.not.i, label %7, label %_ZN14ScopedFilePathD2Ev.exit

7:                                                ; preds = %3
  %8 = tail call noundef ptr @_ZNKSt7__cxx1112basic_stringIcSt11char_traitsIcESaIcEE5c_strEv(ptr noundef nonnull align 8 dereferenceable(32) %0) #23
  %9 = tail call i32 @unlink(ptr noundef %8) #23
  br label %_ZN14ScopedFilePathD2Ev.exit

_ZN14ScopedFilePathD2Ev.exit:                     ; preds = %3, %7
  tail call void @_ZNSt7__cxx1112basic_stringIcSt11char_traitsIcESaIcEED1Ev(ptr noundef nonnull align 8 dereferenceable(32) %0) #23
  tail call void @_ZNSt7__cxx1112basic_stringIcSt11char_traitsIcESaIcEEC1EOS4_(ptr noundef nonnull align 8 dereferenceable(32) %0, ptr noundef nonnull align 8 dereferenceable(32) %1) #23
  %10 = getelementptr inbounds i8, ptr %1, i64 32
  %11 = load i8, ptr %10, align 8
  %12 = and i8 %11, 1
  store i8 %12, ptr %4, align 8
  store i8 1, ptr %10, align 8
  br label %13

13:                                               ; preds = %_ZN14ScopedFilePathD2Ev.exit, %2
  ret ptr %0
}